target datalayout = "e-m:e-p270:32:32-p271:32:32-p272:64:64-i64:64-i128:128-f80:128-n8:16:32:64-S128"
target triple = "x86_64-pc-linux-gnu"

%struct.lua_State = type { i8, i8, i8, i8, i8, i8, i8, ptr, ptr, ptr, ptr, ptr, ptr, ptr, ptr, i32, i32, i16, i16, i32, ptr, ptr, ptr, ptr, ptr }
%struct.global_State = type { %struct.stringtable, ptr, ptr, i8, i8, ptr, ptr, ptr, i64, i64, i32, i32, i32, [40 x ptr], [40 x ptr], ptr, ptr, ptr, [256 x i64], ptr, %struct.UpVal, [11 x ptr], [11 x ptr], [21 x ptr], %struct.lua_TValue, %struct.lua_TValue, i32, ptr, i64, [4 x i64], %struct.lua_Callbacks, %struct.lua_ExecutionCallbacks, [128 x ptr], [128 x ptr], [128 x ptr], %struct.GCStats }
%struct.stringtable = type { ptr, i32, i32 }
%struct.UpVal = type { i8, i8, i8, i8, ptr, %union.anon }
%union.anon = type { %struct.anon }
%struct.anon = type { ptr, ptr, ptr }
%struct.lua_TValue = type { %union.Value, [1 x i32], i32 }
%union.Value = type { ptr }
%struct.lua_Callbacks = type { ptr, ptr, ptr, ptr, ptr, ptr, ptr, ptr, ptr }
%struct.lua_ExecutionCallbacks = type { ptr, ptr, ptr, ptr, ptr, ptr, ptr }
%struct.GCStats = type { [32 x i32], i32, i32, i64, i64, i64, double, double, double }

@.str.9 = private unnamed_addr constant [7 x i8] c"thread\00", align 1
@.str.15 = private unnamed_addr constant [27 x i8] c"too many results to resume\00", align 1

; Function Attrs: mustprogress uwtable
define internal noundef i32 @_ZL14coresumefinishP9lua_Statei(ptr noundef %0, i32 noundef %1) #0 {
  %3 = alloca i32, align 4
  %4 = alloca ptr, align 8
  %5 = alloca i32, align 4
  store ptr %0, ptr %4, align 8
  store i32 %1, ptr %5, align 4
  %6 = load i32, ptr %5, align 4
  %7 = icmp slt i32 %6, 0
  br i1 %7, label %8, label %11

8:                                                ; preds = %2
  %9 = load ptr, ptr %4, align 8
  call void @_Z15lua_pushbooleanP9lua_Statei(ptr noundef %9, i32 noundef 0)
  %10 = load ptr, ptr %4, align 8
  call void @_Z10lua_insertP9lua_Statei(ptr noundef %10, i32 noundef -2)
  store i32 2, ptr %3, align 4
  br label %19

11:                                               ; preds = %2
  %12 = load ptr, ptr %4, align 8
  call void @_Z15lua_pushbooleanP9lua_Statei(ptr noundef %12, i32 noundef 1)
  %13 = load ptr, ptr %4, align 8
  %14 = load i32, ptr %5, align 4
  %15 = add nsw i32 %14, 1
  %16 = sub nsw i32 0, %15
  call void @_Z10lua_insertP9lua_Statei(ptr noundef %13, i32 noundef %16)
  %17 = load i32, ptr %5, align 4
  %18 = add nsw i32 %17, 1
  store i32 %18, ptr %3, align 4
  br label %19

19:                                               ; preds = %11, %8
  %20 = load i32, ptr %3, align 4
  ret i32 %20
}

; Function Attrs: mustprogress uwtable
define internal noundef i32 @_ZL13auxresumecontP9lua_StateS0_(ptr noundef %0, ptr noundef %1) #0 {
  %3 = alloca i32, align 4
  %4 = alloca ptr, align 8
  %5 = alloca ptr, align 8
  %6 = alloca i32, align 4
  store ptr %0, ptr %4, align 8
  store ptr %1, ptr %5, align 8
  %7 = load ptr, ptr %5, align 8
  %8 = getelementptr inbounds %struct.lua_State, ptr %7, i32 0, i32 3
  %9 = load i8, ptr %8, align 1
  %10 = zext i8 %9 to i32
  %11 = icmp eq i32 %10, 0
  br i1 %11, label %18, label %12

12:                                               ; preds = %2
  %13 = load ptr, ptr %5, align 8
  %14 = getelementptr inbounds %struct.lua_State, ptr %13, i32 0, i32 3
  %15 = load i8, ptr %14, align 1
  %16 = zext i8 %15 to i32
  %17 = icmp eq i32 %16, 1
  br i1 %17, label %18, label %42

18:                                               ; preds = %12, %2
  %19 = load ptr, ptr %5, align 8
  %20 = getelementptr inbounds %struct.lua_State, ptr %19, i32 0, i32 7
  %21 = load ptr, ptr %20, align 8
  %22 = load ptr, ptr %5, align 8
  %23 = getelementptr inbounds %struct.lua_State, ptr %22, i32 0, i32 8
  %24 = load ptr, ptr %23, align 8
  %25 = ptrtoint ptr %21 to i64
  %26 = ptrtoint ptr %24 to i64
  %27 = sub i64 %25, %26
  %28 = sdiv exact i64 %27, 16
  %29 = trunc i64 %28 to i32
  store i32 %29, ptr %6, align 4
  %30 = load ptr, ptr %4, align 8
  %31 = load i32, ptr %6, align 4
  %32 = add nsw i32 %31, 1
  %33 = call noundef i32 @_Z14lua_checkstackP9lua_Statei(ptr noundef %30, i32 noundef %32)
  %34 = icmp ne i32 %33, 0
  br i1 %34, label %37, label %35

35:                                               ; preds = %18
  %36 = load ptr, ptr %4, align 8
  call void (ptr, ptr, ...) @_Z11luaL_errorLP9lua_StatePKcz(ptr noundef %36, ptr noundef @.str.15) #3
  unreachable

37:                                               ; preds = %18
  %38 = load ptr, ptr %5, align 8
  %39 = load ptr, ptr %4, align 8
  %40 = load i32, ptr %6, align 4
  call void @_Z9lua_xmoveP9lua_StateS0_i(ptr noundef %38, ptr noundef %39, i32 noundef %40)
  %41 = load i32, ptr %6, align 4
  store i32 %41, ptr %3, align 4
  br label %46

42:                                               ; preds = %12
  %43 = load ptr, ptr %4, align 8
  call void @_Z17lua_rawcheckstackP9lua_Statei(ptr noundef %43, i32 noundef 2)
  %44 = load ptr, ptr %5, align 8
  %45 = load ptr, ptr %4, align 8
  call void @_Z9lua_xmoveP9lua_StateS0_i(ptr noundef %44, ptr noundef %45, i32 noundef 1)
  store i32 -1, ptr %3, align 4
  br label %46

46:                                               ; preds = %42, %37
  %47 = load i32, ptr %3, align 4
  ret i32 %47
}

; Function Attrs: mustprogress uwtable
define internal noundef i32 @_ZL15interruptThreadP9lua_StateS0_(ptr noundef %0, ptr noundef %1) #0 {
  %3 = alloca ptr, align 8
  %4 = alloca ptr, align 8
  store ptr %0, ptr %3, align 8
  store ptr %1, ptr %4, align 8
  %5 = load ptr, ptr %3, align 8
  %6 = getelementptr inbounds %struct.lua_State, ptr %5, i32 0, i32 9
  %7 = load ptr, ptr %6, align 8
  %8 = getelementptr inbounds %struct.global_State, ptr %7, i32 0, i32 30
  %9 = getelementptr inbounds %struct.lua_Callbacks, ptr %8, i32 0, i32 7
  %10 = load ptr, ptr %9, align 8
  %11 = icmp ne ptr %10, null
  br i1 %11, label %12, label %21

12:                                               ; preds = %2
  %13 = load ptr, ptr %3, align 8
  %14 = load ptr, ptr %3, align 8
  %15 = getelementptr inbounds %struct.lua_State, ptr %14, i32 0, i32 9
  %16 = load ptr, ptr %15, align 8
  %17 = getelementptr inbounds %struct.global_State, ptr %16, i32 0, i32 30
  %18 = getelementptr inbounds %struct.lua_Callbacks, ptr %17, i32 0, i32 7
  %19 = load ptr, ptr %18, align 8
  %20 = load ptr, ptr %4, align 8
  call void @_Z13luau_callhookP9lua_StatePFvS0_P9lua_DebugEPv(ptr noundef %13, ptr noundef %19, ptr noundef %20)
  br label %21

21:                                               ; preds = %12, %2
  %22 = load ptr, ptr %3, align 8
  %23 = call noundef i32 @_Z9lua_breakP9lua_State(ptr noundef %22)
  ret i32 %23
}

; Function Attrs: mustprogress uwtable
define internal noundef i32 @_ZL12coresumecontP9lua_Statei(ptr noundef %0, i32 noundef %1) #0 {
  %3 = alloca i32, align 4
  %4 = alloca ptr, align 8
  %5 = alloca i32, align 4
  %6 = alloca ptr, align 8
  %7 = alloca i32, align 4
  store ptr %0, ptr %4, align 8
  store i32 %1, ptr %5, align 4
  %8 = load ptr, ptr %4, align 8
  %9 = call noundef ptr @_Z12lua_tothreadP9lua_Statei(ptr noundef %8, i32 noundef 1)
  store ptr %9, ptr %6, align 8
  %10 = load ptr, ptr %6, align 8
  %11 = icmp ne ptr %10, null
  br i1 %11, label %12, label %13

12:                                               ; preds = %2
  br label %16

13:                                               ; preds = %2
  %14 = load ptr, ptr %4, align 8
  call void @_Z15luaL_typeerrorLP9lua_StateiPKc(ptr noundef %14, i32 noundef 1, ptr noundef @.str.9) #3
  unreachable

15:                                               ; No predecessors!
  br label %16

16:                                               ; preds = %15, %12
  %17 = load ptr, ptr %6, align 8
  %18 = getelementptr inbounds %struct.lua_State, ptr %17, i32 0, i32 3
  %19 = load i8, ptr %18, align 1
  %20 = zext i8 %19 to i32
  %21 = icmp eq i32 %20, 6
  br i1 %21, label %22, label %26

22:                                               ; preds = %16
  %23 = load ptr, ptr %4, align 8
  %24 = load ptr, ptr %6, align 8
  %25 = call noundef i32 @_ZL15interruptThreadP9lua_StateS0_(ptr noundef %23, ptr noundef %24)
  store i32 %25, ptr %3, align 4
  br label %33

26:                                               ; preds = %16
  %27 = load ptr, ptr %4, align 8
  %28 = load ptr, ptr %6, align 8
  %29 = call noundef i32 @_ZL13auxresumecontP9lua_StateS0_(ptr noundef %27, ptr noundef %28)
  store i32 %29, ptr %7, align 4
  %30 = load ptr, ptr %4, align 8
  %31 = load i32, ptr %7, align 4
  %32 = call noundef i32 @_ZL14coresumefinishP9lua_Statei(ptr noundef %30, i32 noundef %31)
  store i32 %32, ptr %3, align 4
  br label %33

33:                                               ; preds = %26, %22
  %34 = load i32, ptr %3, align 4
  ret i32 %34
}