; Function Attrs: mustprogress uwtable
define internal noundef i32 @_ZL12coresumecontP9lua_Statei(ptr noundef %0, i32 %1) #0 {
  %3 = tail call noundef ptr @_Z12lua_tothreadP9lua_Statei(ptr noundef %0, i32 noundef 1)
  %.not = icmp eq ptr %3, null
  br i1 %.not, label %4, label %5

4:                                                ; preds = %2
  tail call void @_Z15luaL_typeerrorLP9lua_StateiPKc(ptr noundef %0, i32 noundef 1, ptr noundef nonnull @.str.9) #3
  unreachable

5:                                                ; preds = %2
  %6 = getelementptr inbounds i8, ptr %3, i64 3
  %7 = load i8, ptr %6, align 1
  %8 = icmp eq i8 %7, 6
  br i1 %8, label %9, label %16

9:                                                ; preds = %5
  %10 = getelementptr inbounds i8, ptr %0, i64 24
  %11 = load ptr, ptr %10, align 8
  %12 = getelementptr inbounds i8, ptr %11, i64 3344
  %13 = load ptr, ptr %12, align 8
  %.not.i = icmp eq ptr %13, null
  br i1 %.not.i, label %_ZL15interruptThreadP9lua_StateS0_.exit, label %14

14:                                               ; preds = %9
  tail call void @_Z13luau_callhookP9lua_StatePFvS0_P9lua_DebugEPv(ptr noundef nonnull %0, ptr noundef nonnull %13, ptr noundef nonnull %3)
  br label %_ZL15interruptThreadP9lua_StateS0_.exit

_ZL15interruptThreadP9lua_StateS0_.exit:          ; preds = %9, %14
  %15 = tail call noundef i32 @_Z9lua_breakP9lua_State(ptr noundef nonnull %0)
  br label %34

16:                                               ; preds = %5
  %switch.i = icmp ult i8 %7, 2
  br i1 %switch.i, label %17, label %_ZL13auxresumecontP9lua_StateS0_.exit.thread

17:                                               ; preds = %16
  %18 = getelementptr inbounds i8, ptr %3, i64 8
  %19 = load ptr, ptr %18, align 8
  %20 = getelementptr inbounds i8, ptr %3, i64 16
  %21 = load ptr, ptr %20, align 8
  %22 = ptrtoint ptr %19 to i64
  %23 = ptrtoint ptr %21 to i64
  %24 = sub i64 %22, %23
  %25 = lshr exact i64 %24, 4
  %26 = trunc i64 %25 to i32
  %27 = add nsw i32 %26, 1
  %28 = tail call noundef i32 @_Z14lua_checkstackP9lua_Statei(ptr noundef %0, i32 noundef %27)
  %.not.i11 = icmp eq i32 %28, 0
  br i1 %.not.i11, label %29, label %_ZL13auxresumecontP9lua_StateS0_.exit

29:                                               ; preds = %17
  tail call void (ptr, ptr, ...) @_Z11luaL_errorLP9lua_StatePKcz(ptr noundef %0, ptr noundef nonnull @.str.15) #3
  unreachable

_ZL13auxresumecontP9lua_StateS0_.exit.thread:     ; preds = %16
  tail call void @_Z17lua_rawcheckstackP9lua_Statei(ptr noundef %0, i32 noundef 2)
  tail call void @_Z9lua_xmoveP9lua_StateS0_i(ptr noundef nonnull %3, ptr noundef %0, i32 noundef 1)
  br label %31

_ZL13auxresumecontP9lua_StateS0_.exit:            ; preds = %17
  tail call void @_Z9lua_xmoveP9lua_StateS0_i(ptr noundef nonnull %3, ptr noundef %0, i32 noundef %26)
  %30 = icmp slt i32 %26, 0
  br i1 %30, label %31, label %32

31:                                               ; preds = %_ZL13auxresumecontP9lua_StateS0_.exit.thread, %_ZL13auxresumecontP9lua_StateS0_.exit
  tail call void @_Z15lua_pushbooleanP9lua_Statei(ptr noundef %0, i32 noundef 0)
  br label %_ZL14coresumefinishP9lua_Statei.exit

32:                                               ; preds = %_ZL13auxresumecontP9lua_StateS0_.exit
  tail call void @_Z15lua_pushbooleanP9lua_Statei(ptr noundef %0, i32 noundef 1)
  %33 = xor i32 %26, -1
  br label %_ZL14coresumefinishP9lua_Statei.exit

_ZL14coresumefinishP9lua_Statei.exit:             ; preds = %31, %32
  %.sink.i12 = phi i32 [ %33, %32 ], [ -2, %31 ]
  %.0.i13 = phi i32 [ %27, %32 ], [ 2, %31 ]
  tail call void @_Z10lua_insertP9lua_Statei(ptr noundef %0, i32 noundef %.sink.i12)
  br label %34

34:                                               ; preds = %_ZL14coresumefinishP9lua_Statei.exit, %_ZL15interruptThreadP9lua_StateS0_.exit
  %.0 = phi i32 [ %15, %_ZL15interruptThreadP9lua_StateS0_.exit ], [ %.0.i13, %_ZL14coresumefinishP9lua_Statei.exit ]
  ret i32 %.0
}